; Function Attrs: nounwind uwtable
define range(i64 -1, -9223372036854775808) i64 @H5Rget_attr_name(ptr noundef %0, ptr noundef %1, i64 noundef %2) local_unnamed_addr #0 {
  %4 = load i8, ptr @H5_libinit_g, align 1
  %5 = trunc i8 %4 to i1
  %6 = load i8, ptr @H5_libterm_g, align 1
  %7 = trunc i8 %6 to i1
  %8 = select i1 %5, i1 true, i1 %7
  br i1 %8, label %16, label %9

9:                                                ; preds = %3
  %10 = tail call i32 @H5_init_library() #4
  %11 = icmp slt i32 %10, 0
  br i1 %11, label %12, label %16

12:                                               ; preds = %9
  %13 = load i64, ptr @H5E_FUNC_g, align 8
  %14 = load i64, ptr @H5E_CANTINIT_g, align 8
  %15 = tail call i32 (ptr, ptr, i32, i64, i64, ptr, ...) @H5E_printf_stack(ptr noundef nonnull @.str, ptr noundef nonnull @__func__.H5Rget_attr_name, i32 noundef 1152, i64 noundef %13, i64 noundef %14, ptr noundef nonnull @.str.1) #4
  br label %.thread24

16:                                               ; preds = %9, %3
  %17 = tail call i32 @H5CX_push() #4
  %18 = icmp slt i32 %17, 0
  br i1 %18, label %19, label %23

19:                                               ; preds = %16
  %20 = load i64, ptr @H5E_FUNC_g, align 8
  %21 = load i64, ptr @H5E_CANTSET_g, align 8
  %22 = tail call i32 (ptr, ptr, i32, i64, i64, ptr, ...) @H5E_printf_stack(ptr noundef nonnull @.str, ptr noundef nonnull @__func__.H5Rget_attr_name, i32 noundef 1152, i64 noundef %20, i64 noundef %21, ptr noundef nonnull @.str.2) #4
  br label %.thread24

23:                                               ; preds = %16
  %24 = tail call i32 @H5E_clear_stack() #4
  %25 = icmp eq ptr %0, null
  br i1 %25, label %26, label %30

26:                                               ; preds = %23
  %27 = load i64, ptr @H5E_ARGS_g, align 8
  %28 = load i64, ptr @H5E_BADVALUE_g, align 8
  %29 = tail call i32 (ptr, ptr, i32, i64, i64, ptr, ...) @H5E_printf_stack(ptr noundef nonnull @.str, ptr noundef nonnull @__func__.H5Rget_attr_name, i32 noundef 1156, i64 noundef %27, i64 noundef %28, ptr noundef nonnull @.str.3) #4
  br label %.thread30

30:                                               ; preds = %23
  %31 = tail call i32 @H5R__get_type(ptr noundef nonnull %0) #4
  %.not = icmp eq i32 %31, 4
  br i1 %.not, label %36, label %32

32:                                               ; preds = %30
  %33 = load i64, ptr @H5E_ARGS_g, align 8
  %34 = load i64, ptr @H5E_BADVALUE_g, align 8
  %35 = tail call i32 (ptr, ptr, i32, i64, i64, ptr, ...) @H5E_printf_stack(ptr noundef nonnull @.str, ptr noundef nonnull @__func__.H5Rget_attr_name, i32 noundef 1158, i64 noundef %33, i64 noundef %34, ptr noundef nonnull @.str.20) #4
  br label %.thread30

36:                                               ; preds = %30
  %37 = tail call i64 @H5R__get_attr_name(ptr noundef nonnull %0, ptr noundef %1, i64 noundef %2) #4
  %38 = icmp slt i64 %37, 0
  br i1 %38, label %39, label %44

39:                                               ; preds = %36
  %40 = load i64, ptr @H5E_REFERENCE_g, align 8
  %41 = load i64, ptr @H5E_CANTGET_g, align 8
  %42 = tail call i32 (ptr, ptr, i32, i64, i64, ptr, ...) @H5E_printf_stack(ptr noundef nonnull @.str, ptr noundef nonnull @__func__.H5Rget_attr_name, i32 noundef 1162, i64 noundef %40, i64 noundef %41, ptr noundef nonnull @.str.48) #4
  br label %.thread30

.thread30:                                        ; preds = %39, %32, %26
  %43 = tail call i32 @H5CX_pop(i1 noundef zeroext true) #4
  br label %.thread24

44:                                               ; preds = %36
  %45 = tail call i32 @H5CX_pop(i1 noundef zeroext true) #4
  br label %47

.thread24:                                        ; preds = %19, %12, %.thread30
  %46 = tail call i32 @H5E_dump_api_stack() #4
  br label %47

47:                                               ; preds = %44, %.thread24
  %.0131927 = phi i64 [ -1, %.thread24 ], [ %37, %44 ]
  ret i64 %.0131927
}